; Function Attrs: nofree norecurse nosync nounwind memory(argmem: readwrite) uwtable
define range(i32 0, 2) i32 @av_stristart(ptr noundef %0, ptr noundef readonly captures(none) %1, ptr noundef writeonly captures(address_is_null) %2) local_unnamed_addr #0 {
  %4 = load i8, ptr %1, align 1, !tbaa !4
  %.not22 = icmp eq i8 %4, 0
  br i1 %.not22, label %.critedge, label %.lr.ph

.lr.ph:                                           ; preds = %3, %14
  %5 = phi i8 [ %17, %14 ], [ %4, %3 ]
  %.024 = phi ptr [ %16, %14 ], [ %0, %3 ]
  %.01123 = phi ptr [ %15, %14 ], [ %1, %3 ]
  %6 = sext i8 %5 to i32
  %7 = add nsw i32 %6, -97
  %or.cond.i = icmp ult i32 %7, 26
  %8 = and i32 %6, 95
  %spec.select.i = select i1 %or.cond.i, i32 %8, i32 %6
  %9 = load i8, ptr %.024, align 1, !tbaa !4
  %10 = sext i8 %9 to i32
  %11 = add nsw i32 %10, -97
  %or.cond.i15 = icmp ult i32 %11, 26
  %12 = and i32 %10, 95
  %spec.select.i16 = select i1 %or.cond.i15, i32 %12, i32 %10
  %13 = icmp eq i32 %spec.select.i, %spec.select.i16
  br i1 %13, label %14, label %.critedge.thread

14:                                               ; preds = %.lr.ph
  %15 = getelementptr inbounds nuw i8, ptr %.01123, i64 1
  %16 = getelementptr inbounds nuw i8, ptr %.024, i64 1
  %17 = load i8, ptr %15, align 1, !tbaa !4
  %.not = icmp eq i8 %17, 0
  br i1 %.not, label %.critedge, label %.lr.ph, !llvm.loop !12

.critedge:                                        ; preds = %14, %3
  %.011.lcssa = phi ptr [ %1, %3 ], [ %15, %14 ]
  %.0.lcssa = phi ptr [ %0, %3 ], [ %16, %14 ]
  %.not18 = icmp eq ptr %2, null
  br i1 %.not18, label %.critedge.thread, label %18

18:                                               ; preds = %.critedge
  store ptr %.0.lcssa, ptr %2, align 8, !tbaa !9
  %.pre = load i8, ptr %.011.lcssa, align 1, !tbaa !4
  %19 = icmp eq i8 %.pre, 0
  %20 = zext i1 %19 to i32
  br label %.critedge.thread

.critedge.thread:                                 ; preds = %.lr.ph, %18, %.critedge
  %.not14 = phi i32 [ %20, %18 ], [ 1, %.critedge ], [ 0, %.lr.ph ]
  ret i32 %.not14
}